target datalayout = "e-m:e-p270:32:32-p271:32:32-p272:64:64-i64:64-i128:128-f80:128-n8:16:32:64-S128"
target triple = "x86_64-pc-linux-gnu"

@.str.66 = private unnamed_addr constant [4 x i8] c"_%d\00", align 1

; Function Attrs: nounwind uwtable
define internal ptr @make_colname_unique(ptr noundef %0, ptr noundef %1, ptr noundef %2) #0 {
  %4 = alloca ptr, align 8
  %5 = alloca ptr, align 8
  %6 = alloca ptr, align 8
  %7 = alloca i32, align 4
  %8 = alloca ptr, align 8
  %9 = alloca i32, align 4
  store ptr %0, ptr %4, align 8
  store ptr %1, ptr %5, align 8
  store ptr %2, ptr %6, align 8
  %10 = load ptr, ptr %4, align 8
  %11 = load ptr, ptr %5, align 8
  %12 = load ptr, ptr %6, align 8
  %13 = call zeroext i1 @colname_is_unique(ptr noundef %10, ptr noundef %11, ptr noundef %12)
  br i1 %13, label %55, label %14

14:                                               ; preds = %3
  call void @llvm.lifetime.start.p0(i64 4, ptr %7) #10
  %15 = load ptr, ptr %4, align 8
  %16 = call i64 @strlen(ptr noundef %15) #12
  %17 = trunc i64 %16 to i32
  store i32 %17, ptr %7, align 4
  call void @llvm.lifetime.start.p0(i64 8, ptr %8) #10
  %18 = load i32, ptr %7, align 4
  %19 = add i32 %18, 16
  %20 = sext i32 %19 to i64
  %21 = call ptr @palloc(i64 noundef %20)
  store ptr %21, ptr %8, align 8
  call void @llvm.lifetime.start.p0(i64 4, ptr %9) #10
  store i32 0, ptr %9, align 4
  br label %22

22:                                               ; preds = %47, %14
  %23 = load i32, ptr %9, align 4
  %24 = add i32 %23, 1
  store i32 %24, ptr %9, align 4
  br label %25

25:                                               ; preds = %40, %22
  %26 = load ptr, ptr %8, align 8
  %27 = load ptr, ptr %4, align 8
  %28 = load i32, ptr %7, align 4
  %29 = sext i32 %28 to i64
  call void @llvm.memcpy.p0.p0.i64(ptr align 1 %26, ptr align 1 %27, i64 %29, i1 false)
  %30 = load ptr, ptr %8, align 8
  %31 = load i32, ptr %7, align 4
  %32 = sext i32 %31 to i64
  %33 = getelementptr inbounds i8, ptr %30, i64 %32
  %34 = load i32, ptr %9, align 4
  %35 = call i32 (ptr, ptr, ...) @pg_sprintf(ptr noundef %33, ptr noundef @.str.66, i32 noundef %34)
  %36 = load ptr, ptr %8, align 8
  %37 = call i64 @strlen(ptr noundef %36) #12
  %38 = icmp ult i64 %37, 64
  br i1 %38, label %39, label %40

39:                                               ; preds = %25
  br label %46

40:                                               ; preds = %25
  %41 = load ptr, ptr %4, align 8
  %42 = load i32, ptr %7, align 4
  %43 = load i32, ptr %7, align 4
  %44 = sub i32 %43, 1
  %45 = call i32 @pg_mbcliplen(ptr noundef %41, i32 noundef %42, i32 noundef %44)
  store i32 %45, ptr %7, align 4
  br label %25

46:                                               ; preds = %39
  br label %47

47:                                               ; preds = %46
  %48 = load ptr, ptr %8, align 8
  %49 = load ptr, ptr %5, align 8
  %50 = load ptr, ptr %6, align 8
  %51 = call zeroext i1 @colname_is_unique(ptr noundef %48, ptr noundef %49, ptr noundef %50)
  %52 = xor i1 %51, true
  br i1 %52, label %22, label %53, !llvm.loop !71

53:                                               ; preds = %47
  %54 = load ptr, ptr %8, align 8
  store ptr %54, ptr %4, align 8
  call void @llvm.lifetime.end.p0(i64 4, ptr %9) #10
  call void @llvm.lifetime.end.p0(i64 8, ptr %8) #10
  call void @llvm.lifetime.end.p0(i64 4, ptr %7) #10
  br label %55

55:                                               ; preds = %53, %3
  %56 = load ptr, ptr %4, align 8
  ret ptr %56
}