; Function Attrs: nounwind uwtable
define internal fastcc ptr @make_colname_unique(ptr noundef %0, ptr noundef readonly captures(none) %1, ptr noundef readonly captures(none) %2) unnamed_addr #0 {
  %4 = tail call fastcc zeroext i1 @colname_is_unique(ptr noundef %0, ptr noundef %1, ptr noundef %2)
  br i1 %4, label %.loopexit, label %5

5:                                                ; preds = %3
  %6 = tail call i64 @strlen(ptr noundef nonnull dereferenceable(1) %0) #13
  %7 = trunc i64 %6 to i32
  %8 = shl i64 %6, 32
  %sext = add i64 %8, 68719476736
  %9 = ashr exact i64 %sext, 32
  %10 = tail call ptr @palloc(i64 noundef %9) #11
  br label %11

11:                                               ; preds = %._crit_edge, %5
  %.021 = phi i32 [ %7, %5 ], [ %.1.lcssa, %._crit_edge ]
  %.0 = phi i32 [ 0, %5 ], [ %12, %._crit_edge ]
  %12 = add i32 %.0, 1
  %13 = sext i32 %.021 to i64
  tail call void @llvm.memcpy.p0.p0.i64(ptr align 1 %10, ptr nonnull align 1 %0, i64 %13, i1 false)
  %14 = getelementptr inbounds i8, ptr %10, i64 %13
  %15 = tail call i32 (ptr, ptr, ...) @pg_sprintf(ptr noundef %14, ptr noundef nonnull @.str.66, i32 noundef %12) #11
  %16 = tail call i64 @strlen(ptr noundef nonnull dereferenceable(1) %10) #13
  %17 = icmp ult i64 %16, 64
  br i1 %17, label %._crit_edge, label %.lr.ph

.lr.ph:                                           ; preds = %11, %.lr.ph
  %.122 = phi i32 [ %19, %.lr.ph ], [ %.021, %11 ]
  %18 = add i32 %.122, -1
  %19 = tail call i32 @pg_mbcliplen(ptr noundef nonnull %0, i32 noundef %.122, i32 noundef %18) #11
  %20 = sext i32 %19 to i64
  tail call void @llvm.memcpy.p0.p0.i64(ptr nonnull align 1 %10, ptr nonnull align 1 %0, i64 %20, i1 false)
  %21 = getelementptr inbounds i8, ptr %10, i64 %20
  %22 = tail call i32 (ptr, ptr, ...) @pg_sprintf(ptr noundef nonnull %21, ptr noundef nonnull @.str.66, i32 noundef %12) #11
  %23 = tail call i64 @strlen(ptr noundef nonnull dereferenceable(1) %10) #13
  %24 = icmp ult i64 %23, 64
  br i1 %24, label %._crit_edge, label %.lr.ph

._crit_edge:                                      ; preds = %.lr.ph, %11
  %.1.lcssa = phi i32 [ %.021, %11 ], [ %19, %.lr.ph ]
  %25 = tail call fastcc zeroext i1 @colname_is_unique(ptr noundef nonnull %10, ptr noundef %1, ptr noundef %2)
  br i1 %25, label %.loopexit, label %11, !llvm.loop !42

.loopexit:                                        ; preds = %._crit_edge, %3
  %.020 = phi ptr [ %0, %3 ], [ %10, %._crit_edge ]
  ret ptr %.020
}